target datalayout = "e-m:e-p270:32:32-p271:32:32-p272:64:64-i64:64-i128:128-f80:128-n8:16:32:64-S128"
target triple = "x86_64-pc-linux-gnu"

%struct.redisServer = type { i32, i64, ptr, ptr, ptr, i32, i32, i32, i32, i32, ptr, ptr, ptr, ptr, ptr, i32, i32, i32, i32, i64, i32, i32, i32, i32, ptr, i32, i32, [41 x i8], i32, i64, i32, i32, i32, ptr, ptr, i32, i32, i64, ptr, ptr, ptr, ptr, [2 x i32], i32, i32, i32, i32, i32, i32, [16 x ptr], i32, ptr, ptr, i32, [8 x %struct.connListener], i32, %struct.connListener, ptr, ptr, ptr, ptr, ptr, ptr, ptr, ptr, ptr, ptr, i32, ptr, i32, ptr, [3 x %struct.pause_event], [256 x i8], ptr, i64, i32, i32, [128 x i32], i32, i32, i64, i32, i32, i32, i32, i32, i64, i64, i64, i64, i64, i64, i64, i64, i64, i64, double, i64, i64, i64, i64, i64, i64, i64, i64, i64, i64, i64, i64, i64, i64, i64, i64, i64, i64, i64, i64, i64, double, i64, i64, i64, i64, i64, ptr, i64, i64, i64, %struct.malloc_stats, i64, i64, i64, i64, i64, i64, i64, i64, i64, i64, i64, i64, double, [4 x i64], i64, i64, i64, i64, [128 x i64], [128 x i64], i64, i64, [7 x %struct.anon], i64, i64, i64, i64, i64, i64, [4 x %struct.durationStats], i32, i32, i32, i32, i32, i32, i32, i32, i32, i32, i32, i32, i64, i32, i32, i32, i32, i64, i64, i32, i32, i32, i32, i32, ptr, [3 x %struct.clientBufferLimitsConfig], i32, i32, i32, ptr, i32, i32, i32, i32, i32, i32, ptr, ptr, i32, i32, i64, i64, i64, i64, i64, i32, i32, ptr, i32, i32, i64, i64, i64, i64, i64, i32, i32, i64, i32, i32, i32, i32, i32, i32, i32, i32, ptr, i32, i64, i64, i64, i64, i32, ptr, i32, ptr, i32, i32, i32, i64, i64, i64, i64, i32, i32, i32, i32, i32, i32, ptr, i32, i32, ptr, i32, i32, i32, [2 x i32], i32, %struct.redisOpArray, i32, ptr, i32, ptr, i32, i32, i32, i32, i32, i32, i32, [41 x i8], [41 x i8], i64, i64, i64, i64, i32, i32, ptr, i64, i64, %struct.replDataBuf, i64, i64, i32, i32, i32, i32, i32, i32, i32, i32, i32, i64, ptr, i64, ptr, ptr, ptr, i32, i32, ptr, ptr, i32, i32, i32, i64, i64, i64, i64, ptr, ptr, i32, ptr, i64, i32, i32, i32, i64, i32, i32, i32, i32, ptr, i32, i32, [41 x i8], i64, i32, ptr, i32, i32, i64, i64, i32, i32, i32, i32, i32, i64, [3 x i32], i32, i32, i32, [10 x i32], ptr, ptr, i32, i64, ptr, ptr, i32, i32, i32, i32, i64, i64, i64, i64, i64, i64, i64, i64, i64, i64, i32, i32, i64, i64, i32, i64, i64, i64, i64, i64, ptr, ptr, i32, ptr, i32, i32, i32, i32, i64, i64, ptr, ptr, i32, i32, i32, i32, i32, ptr, ptr, ptr, i32, i32, i32, i32, i32, i32, i32, i64, i32, i32, i64, i32, i32, i32, i32, i32, i32, i32, i64, ptr, ptr, i64, ptr, i32, %struct.aclInfo, i32, i64, i32, i32, i32, %struct.redisTLSContextConfig, ptr, ptr, ptr, ptr, ptr, i64, i32, ptr, i32, i32, i32, i64, i32, ptr }
%struct.connListener = type { [16 x i32], i32, ptr, i32, i32, ptr, ptr }
%struct.pause_event = type { i32, i64 }
%struct.malloc_stats = type { i64, i64, i64, i64, i64, i64, i64, i64, i64, i64, i64 }
%struct.anon = type { i64, i64, [16 x i64], i32 }
%struct.durationStats = type { i64, i64, i64 }
%struct.clientBufferLimitsConfig = type { i64, i64, i64 }
%struct.redisOpArray = type { ptr, i32, i32 }
%struct.replDataBuf = type { ptr, i64, i64, i64, i64 }
%struct.aclInfo = type { i64, i64, i64, i64 }
%struct.redisTLSContextConfig = type { ptr, ptr, ptr, ptr, ptr, ptr, ptr, ptr, ptr, ptr, ptr, ptr, i32, i32, i32, i32 }
%struct.dictDefragFunctions = type { ptr, ptr, ptr }
%struct.redisObject = type { i32, i32, ptr }
%struct.dict = type { ptr, [2 x ptr], [2 x i64], i64, i16, [2 x i8], i16, [0 x ptr] }
%struct.redisDb = type { ptr, ptr, ptr, ptr, ptr, ptr, ptr, i32, i64, i64, ptr }

@server = external global %struct.redisServer, align 8
@.str = private unnamed_addr constant [9 x i8] c"defrag.c\00", align 1
@.str.11 = private unnamed_addr constant [55 x i8] c"ob->type == OBJ_SET && ob->encoding == OBJ_ENCODING_HT\00", align 1

; Function Attrs: nounwind uwtable
define dso_local void @activeDefragSdsDict(ptr noundef %0, i32 noundef %1) #0 {
  %3 = alloca ptr, align 8
  %4 = alloca i32, align 4
  %5 = alloca i64, align 8
  %6 = alloca %struct.dictDefragFunctions, align 8
  store ptr %0, ptr %3, align 8, !tbaa !53
  store i32 %1, ptr %4, align 4, !tbaa !44
  call void @llvm.lifetime.start.p0(i64 8, ptr %5) #10
  store i64 0, ptr %5, align 8, !tbaa !39
  call void @llvm.lifetime.start.p0(i64 24, ptr %6) #10
  %7 = getelementptr inbounds nuw %struct.dictDefragFunctions, ptr %6, i32 0, i32 0
  store ptr @activeDefragAlloc, ptr %7, align 8, !tbaa !81
  %8 = getelementptr inbounds nuw %struct.dictDefragFunctions, ptr %6, i32 0, i32 1
  store ptr @activeDefragSds, ptr %8, align 8, !tbaa !83
  %9 = getelementptr inbounds nuw %struct.dictDefragFunctions, ptr %6, i32 0, i32 2
  %10 = load i32, ptr %4, align 4, !tbaa !44
  %11 = icmp eq i32 %10, 1
  br i1 %11, label %12, label %13

12:                                               ; preds = %2
  br label %29

13:                                               ; preds = %2
  %14 = load i32, ptr %4, align 4, !tbaa !44
  %15 = icmp eq i32 %14, 2
  br i1 %15, label %16, label %17

16:                                               ; preds = %13
  br label %27

17:                                               ; preds = %13
  %18 = load i32, ptr %4, align 4, !tbaa !44
  %19 = icmp eq i32 %18, 3
  br i1 %19, label %20, label %21

20:                                               ; preds = %17
  br label %25

21:                                               ; preds = %17
  %22 = load i32, ptr %4, align 4, !tbaa !44
  %23 = icmp eq i32 %22, 4
  %24 = select i1 %23, ptr @activeDefragLuaScript, ptr null
  br label %25

25:                                               ; preds = %21, %20
  %26 = phi ptr [ @activeDefragAlloc, %20 ], [ %24, %21 ]
  br label %27

27:                                               ; preds = %25, %16
  %28 = phi ptr [ @activeDefragStringOb, %16 ], [ %26, %25 ]
  br label %29

29:                                               ; preds = %27, %12
  %30 = phi ptr [ @activeDefragSds, %12 ], [ %28, %27 ]
  store ptr %30, ptr %9, align 8, !tbaa !84
  br label %31

31:                                               ; preds = %35, %29
  %32 = load ptr, ptr %3, align 8, !tbaa !53
  %33 = load i64, ptr %5, align 8, !tbaa !39
  %34 = call i64 @dictScanDefrag(ptr noundef %32, i64 noundef %33, ptr noundef @activeDefragSdsDictCallback, ptr noundef %6, ptr noundef null)
  store i64 %34, ptr %5, align 8, !tbaa !39
  br label %35

35:                                               ; preds = %31
  %36 = load i64, ptr %5, align 8, !tbaa !39
  %37 = icmp ne i64 %36, 0
  br i1 %37, label %31, label %38, !llvm.loop !85

38:                                               ; preds = %35
  call void @llvm.lifetime.end.p0(i64 24, ptr %6) #10
  call void @llvm.lifetime.end.p0(i64 8, ptr %5) #10
  ret void
}

; Function Attrs: nounwind uwtable
define dso_local void @defragLater(ptr noundef %0, ptr noundef %1) #0 {
  %3 = alloca ptr, align 8
  %4 = alloca ptr, align 8
  %5 = alloca ptr, align 8
  store ptr %0, ptr %3, align 8, !tbaa !108
  store ptr %1, ptr %4, align 8, !tbaa !75
  call void @llvm.lifetime.start.p0(i64 8, ptr %5) #10
  %6 = load ptr, ptr %4, align 8, !tbaa !75
  %7 = call ptr @dictGetKey(ptr noundef %6)
  %8 = call ptr @sdsdup(ptr noundef %7)
  store ptr %8, ptr %5, align 8, !tbaa !41
  %9 = load ptr, ptr %3, align 8, !tbaa !108
  %10 = getelementptr inbounds nuw %struct.redisDb, ptr %9, i32 0, i32 10
  %11 = load ptr, ptr %10, align 8, !tbaa !109
  %12 = load ptr, ptr %5, align 8, !tbaa !41
  %13 = call ptr @listAddNodeTail(ptr noundef %11, ptr noundef %12)
  call void @llvm.lifetime.end.p0(i64 8, ptr %5) #10
  ret void
}

; Function Attrs: nounwind uwtable
define dso_local void @defragSet(ptr noundef %0, ptr noundef %1) #0 {
  %3 = alloca ptr, align 8
  %4 = alloca ptr, align 8
  %5 = alloca ptr, align 8
  %6 = alloca ptr, align 8
  %7 = alloca ptr, align 8
  store ptr %0, ptr %3, align 8, !tbaa !108
  store ptr %1, ptr %4, align 8, !tbaa !75
  call void @llvm.lifetime.start.p0(i64 8, ptr %5) #10
  %8 = load ptr, ptr %4, align 8, !tbaa !75
  %9 = call ptr @dictGetVal(ptr noundef %8)
  store ptr %9, ptr %5, align 8, !tbaa !42
  call void @llvm.lifetime.start.p0(i64 8, ptr %6) #10
  call void @llvm.lifetime.start.p0(i64 8, ptr %7) #10
  %10 = load ptr, ptr %5, align 8, !tbaa !42
  %11 = load i32, ptr %10, align 8
  %12 = and i32 %11, 15
  %13 = icmp eq i32 %12, 2
  br i1 %13, label %14, label %20

14:                                               ; preds = %2
  %15 = load ptr, ptr %5, align 8, !tbaa !42
  %16 = load i32, ptr %15, align 8
  %17 = lshr i32 %16, 4
  %18 = and i32 %17, 15
  %19 = icmp eq i32 %18, 2
  br label %20

20:                                               ; preds = %14, %2
  %21 = phi i1 [ false, %2 ], [ %19, %14 ]
  %22 = xor i1 %21, true
  %23 = xor i1 %22, true
  %24 = zext i1 %23 to i32
  %25 = sext i32 %24 to i64
  %26 = call i64 @llvm.expect.i64(i64 %25, i64 1)
  %27 = icmp ne i64 %26, 0
  br i1 %27, label %28, label %29

28:                                               ; preds = %20
  br label %31

29:                                               ; preds = %20
  call void @_serverAssert(ptr noundef @.str.11, ptr noundef @.str, i32 noundef 556)
  call void @abort() #11
  unreachable

30:                                               ; No predecessors!
  br label %31

31:                                               ; preds = %30, %28
  %32 = load ptr, ptr %5, align 8, !tbaa !42
  %33 = getelementptr inbounds nuw %struct.redisObject, ptr %32, i32 0, i32 2
  %34 = load ptr, ptr %33, align 8, !tbaa !47
  store ptr %34, ptr %6, align 8, !tbaa !53
  %35 = load ptr, ptr %6, align 8, !tbaa !53
  %36 = getelementptr inbounds nuw %struct.dict, ptr %35, i32 0, i32 2
  %37 = getelementptr inbounds [2 x i64], ptr %36, i64 0, i64 0
  %38 = load i64, ptr %37, align 8, !tbaa !39
  %39 = load ptr, ptr %6, align 8, !tbaa !53
  %40 = getelementptr inbounds nuw %struct.dict, ptr %39, i32 0, i32 2
  %41 = getelementptr inbounds [2 x i64], ptr %40, i64 0, i64 1
  %42 = load i64, ptr %41, align 8, !tbaa !39
  %43 = add i64 %38, %42
  %44 = load i64, ptr getelementptr inbounds nuw (%struct.redisServer, ptr @server, i32 0, i32 176), align 8, !tbaa !118
  %45 = icmp ugt i64 %43, %44
  br i1 %45, label %46, label %49

46:                                               ; preds = %31
  %47 = load ptr, ptr %3, align 8, !tbaa !108
  %48 = load ptr, ptr %4, align 8, !tbaa !75
  call void @defragLater(ptr noundef %47, ptr noundef %48)
  br label %51

49:                                               ; preds = %31
  %50 = load ptr, ptr %6, align 8, !tbaa !53
  call void @activeDefragSdsDict(ptr noundef %50, i32 noundef 0)
  br label %51

51:                                               ; preds = %49, %46
  %52 = load ptr, ptr %5, align 8, !tbaa !42
  %53 = getelementptr inbounds nuw %struct.redisObject, ptr %52, i32 0, i32 2
  %54 = load ptr, ptr %53, align 8, !tbaa !47
  %55 = call ptr @dictDefragTables(ptr noundef %54)
  store ptr %55, ptr %7, align 8, !tbaa !53
  %56 = icmp ne ptr %55, null
  br i1 %56, label %57, label %61

57:                                               ; preds = %51
  %58 = load ptr, ptr %7, align 8, !tbaa !53
  %59 = load ptr, ptr %5, align 8, !tbaa !42
  %60 = getelementptr inbounds nuw %struct.redisObject, ptr %59, i32 0, i32 2
  store ptr %58, ptr %60, align 8, !tbaa !47
  br label %61

61:                                               ; preds = %57, %51
  call void @llvm.lifetime.end.p0(i64 8, ptr %7) #10
  call void @llvm.lifetime.end.p0(i64 8, ptr %6) #10
  call void @llvm.lifetime.end.p0(i64 8, ptr %5) #10
  ret void
}