; Function Attrs: nounwind uwtable
define dso_local void @defragSet(ptr noundef readonly captures(none) %0, ptr noundef %1) local_unnamed_addr #0 {
  %3 = alloca %struct.dictDefragFunctions, align 8
  %4 = tail call ptr @dictGetVal(ptr noundef %1) #10
  %5 = load i32, ptr %4, align 8
  %6 = and i32 %5, 255
  %7 = icmp eq i32 %6, 34
  br i1 %7, label %9, label %8, !prof !58

8:                                                ; preds = %2
  tail call void @_serverAssert(ptr noundef nonnull @.str.11, ptr noundef nonnull @.str, i32 noundef 556) #10
  tail call void @abort() #11
  unreachable

9:                                                ; preds = %2
  %10 = getelementptr inbounds nuw i8, ptr %4, i64 8
  %11 = load ptr, ptr %10, align 8, !tbaa !41
  %12 = getelementptr inbounds nuw i8, ptr %11, i64 24
  %13 = load i64, ptr %12, align 8, !tbaa !94
  %14 = getelementptr inbounds nuw i8, ptr %11, i64 32
  %15 = load i64, ptr %14, align 8, !tbaa !94
  %16 = add i64 %15, %13
  %17 = load i64, ptr getelementptr inbounds nuw (i8, ptr @server, i64 6360), align 8, !tbaa !100
  %18 = icmp ugt i64 %16, %17
  br i1 %18, label %19, label %25

19:                                               ; preds = %9
  %20 = tail call ptr @dictGetKey(ptr noundef %1) #10
  %21 = tail call ptr @sdsdup(ptr noundef %20) #10
  %22 = getelementptr inbounds nuw i8, ptr %0, i64 80
  %23 = load ptr, ptr %22, align 8, !tbaa !90
  %24 = tail call ptr @listAddNodeTail(ptr noundef %23, ptr noundef %21) #10
  br label %30

25:                                               ; preds = %9
  call void @llvm.lifetime.start.p0(i64 24, ptr nonnull %3) #10
  store ptr @activeDefragAlloc, ptr %3, align 8, !tbaa !68
  %26 = getelementptr inbounds nuw i8, ptr %3, i64 8
  store ptr @activeDefragSds, ptr %26, align 8, !tbaa !70
  %27 = getelementptr inbounds nuw i8, ptr %3, i64 16
  store ptr null, ptr %27, align 8, !tbaa !71
  br label %28

28:                                               ; preds = %28, %25
  %.0.i = phi i64 [ 0, %25 ], [ %29, %28 ]
  %29 = call i64 @dictScanDefrag(ptr noundef %11, i64 noundef %.0.i, ptr noundef nonnull @activeDefragSdsDictCallback, ptr noundef nonnull %3, ptr noundef null) #10
  %.not.i = icmp eq i64 %29, 0
  br i1 %.not.i, label %activeDefragSdsDict.exit, label %28, !llvm.loop !72

activeDefragSdsDict.exit:                         ; preds = %28
  call void @llvm.lifetime.end.p0(i64 24, ptr nonnull %3) #10
  br label %30

30:                                               ; preds = %activeDefragSdsDict.exit, %19
  %31 = load ptr, ptr %10, align 8, !tbaa !41
  %32 = call ptr @dictDefragTables(ptr noundef %31)
  %.not = icmp eq ptr %32, null
  br i1 %.not, label %34, label %33

33:                                               ; preds = %30
  store ptr %32, ptr %10, align 8, !tbaa !41
  br label %34

34:                                               ; preds = %33, %30
  ret void
}